(dp0
S'11229'
p1
I3867
sS'11206'
p2
I2797
sS'11201'
p3
I10722
sS'11203'
p4
I1867
sS'11205'
p5
I8153
sS'11204'
p6
I4091
sS'11207'
p7
I2429
sS'11228'
p8
I7543
sS'11209'
p9
I17266
sS'11208'
p10
I1587
sS'11225'
p11
I78
sS'11224'
p12
I3956
sS'11223'
p13
I4769
sS'11222'
p14
I2086
sS'11221'
p15
I4070
sS'11220'
p16
I13837
sS'11219'
p17
I9117
sS'11226'
p18
I5029
sS'11238'
p19
I5963
sS'11239'
p20
I3759
sS'11210'
p21
I2671
sS'11211'
p22
I6781
sS'11216'
p23
I875
sS'11217'
p24
I3004
sS'11214'
p25
I7638
sS'11215'
p26
I1182
sS'11230'
p27
I6307
sS'11231'
p28
I6135
sS'11218'
p29
I5092
sS'11233'
p30
I3923
sS'11234'
p31
I15107
sS'11235'
p32
I8779
sS'11236'
p33
I12595
sS'11237'
p34
I4243
sS'11212'
p35
I1369
sS'11425'
p36
I413
sS'11232'
p37
I10344
s.